target datalayout = "e-m:e-p270:32:32-p271:32:32-p272:64:64-i64:64-i128:128-f80:128-n8:16:32:64-S128"
target triple = "x86_64-unknown-linux-gnu"

%"struct.std::array.3" = type { [4 x i64] }
%"class.std::__cxx11::basic_string" = type { %"struct.std::__cxx11::basic_string<char>::_Alloc_hider", i64, %union.anon }
%"struct.std::__cxx11::basic_string<char>::_Alloc_hider" = type { ptr }
%union.anon = type { i64, [8 x i8] }
%"class.arrow::Decimal256" = type { %"class.arrow::BasicDecimal256" }
%"class.arrow::BasicDecimal256" = type { %"class.arrow::GenericBasicDecimal.2" }
%"class.arrow::GenericBasicDecimal.2" = type { %"struct.std::array.3" }

; Function Attrs: mustprogress nounwind uwtable
define linkonce_odr noundef nonnull align 8 dereferenceable(8) ptr @_ZNSt14__array_traitsImLm4EE6_S_refERA4_Kmm(ptr noundef nonnull align 8 dereferenceable(32) %__t, i64 noundef %__n) #2 comdat align 2 {
entry:
  %__t.addr = alloca ptr, align 8
  %__n.addr = alloca i64, align 8
  store ptr %__t, ptr %__t.addr, align 8
  store i64 %__n, ptr %__n.addr, align 8
  %0 = load ptr, ptr %__t.addr, align 8
  %1 = load i64, ptr %__n.addr, align 8
  %arrayidx = getelementptr inbounds [4 x i64], ptr %0, i64 0, i64 %1
  ret ptr %arrayidx
}

; Function Attrs: mustprogress nounwind uwtable
define internal void @_ZN5arrow8bit_util13little_endianL8ToNativeImLm4EEESt5arrayIT_XT0_EES5_(ptr noalias sret(%"struct.std::array.3") align 8 %agg.result, ptr noundef byval(%"struct.std::array.3") align 8 %array) #2 {
entry:
  call void @llvm.memcpy.p0.p0.i64(ptr align 8 %agg.result, ptr align 8 %array, i64 32, i1 false)
  ret void
}

; Function Attrs: mustprogress nounwind uwtable
define linkonce_odr noundef nonnull align 8 dereferenceable(8) ptr @_ZNKSt5arrayImLm4EEixEm(ptr noundef nonnull align 8 dereferenceable(32) %this, i64 noundef %__n) #2 comdat align 2 {
entry:
  %this.addr = alloca ptr, align 8
  %__n.addr = alloca i64, align 8
  store ptr %this, ptr %this.addr, align 8
  store i64 %__n, ptr %__n.addr, align 8
  %this1 = load ptr, ptr %this.addr, align 8
  %_M_elems = getelementptr inbounds %"struct.std::array.3", ptr %this1, i32 0, i32 0
  %0 = load i64, ptr %__n.addr, align 8
  %call = call noundef nonnull align 8 dereferenceable(8) ptr @_ZNSt14__array_traitsImLm4EE6_S_refERA4_Kmm(ptr noundef nonnull align 8 dereferenceable(32) %_M_elems, i64 noundef %0) #12
  ret ptr %call
}

; Function Attrs: mustprogress nounwind uwtable
define internal void @_ZN5arrow8bit_util13little_endianL10FromNativeImLm4EEESt5arrayIT_XT0_EES5_(ptr noalias sret(%"struct.std::array.3") align 8 %agg.result, ptr noundef byval(%"struct.std::array.3") align 8 %array) #2 {
entry:
  %agg.tmp = alloca %"struct.std::array.3", align 8
  call void @llvm.memcpy.p0.p0.i64(ptr align 8 %agg.tmp, ptr align 8 %array, i64 32, i1 false)
  call void @_ZN5arrow8bit_util13little_endianL8ToNativeImLm4EEESt5arrayIT_XT0_EES5_(ptr sret(%"struct.std::array.3") align 8 %agg.result, ptr noundef byval(%"struct.std::array.3") align 8 %agg.tmp)
  ret void
}

; Function Attrs: mustprogress nounwind uwtable
define linkonce_odr noundef nonnull align 8 dereferenceable(32) ptr @_ZNK5arrow19GenericBasicDecimalINS_15BasicDecimal256ELi256ELi4EE19native_endian_arrayEv(ptr noundef nonnull align 8 dereferenceable(32) %this) #2 comdat align 2 {
entry:
  %this.addr = alloca ptr, align 8
  store ptr %this, ptr %this.addr, align 8
  %this1 = load ptr, ptr %this.addr, align 8
  %array_ = getelementptr inbounds %"class.arrow::GenericBasicDecimal.2", ptr %this1, i32 0, i32 0
  ret ptr %array_
}

; Function Attrs: mustprogress nounwind uwtable
define linkonce_odr noundef zeroext i1 @_ZNK5arrow19GenericBasicDecimalINS_15BasicDecimal256ELi256ELi4EE10IsNegativeEv(ptr noundef nonnull align 8 dereferenceable(32) %this) #2 comdat align 2 {
entry:
  %this.addr = alloca ptr, align 8
  store ptr %this, ptr %this.addr, align 8
  %this1 = load ptr, ptr %this.addr, align 8
  %array_ = getelementptr inbounds %"class.arrow::GenericBasicDecimal.2", ptr %this1, i32 0, i32 0
  %call = call noundef nonnull align 8 dereferenceable(8) ptr @_ZNKSt5arrayImLm4EEixEm(ptr noundef nonnull align 8 dereferenceable(32) %array_, i64 noundef 3) #12
  %0 = load i64, ptr %call, align 8
  %cmp = icmp slt i64 %0, 0
  ret i1 %cmp
}

; Function Attrs: mustprogress uwtable
define void @_ZNK5arrow10Decimal25615ToIntegerStringB5cxx11Ev(ptr noalias sret(%"class.std::__cxx11::basic_string") align 8 %agg.result, ptr noundef nonnull align 8 dereferenceable(32) %this) #0 align 2 personality ptr @__gxx_personality_v0 {
entry:
  %result.ptr = alloca ptr, align 8
  %this.addr = alloca ptr, align 8
  %nrvo = alloca i1, align 1
  %exn.slot = alloca ptr, align 8
  %ehselector.slot = alloca i32, align 4
  %abs = alloca %"class.arrow::Decimal256", align 8
  %ref.tmp = alloca %"struct.std::array.3", align 8
  %agg.tmp = alloca %"struct.std::array.3", align 8
  %ref.tmp9 = alloca %"struct.std::array.3", align 8
  %agg.tmp10 = alloca %"struct.std::array.3", align 8
  store ptr %agg.result, ptr %result.ptr, align 8
  store ptr %this, ptr %this.addr, align 8
  %this1 = load ptr, ptr %this.addr, align 8
  store i1 false, ptr %nrvo, align 1
  call void @_ZNSt7__cxx1112basic_stringIcSt11char_traitsIcESaIcEEC1Ev(ptr noundef nonnull align 8 dereferenceable(32) %agg.result) #12
  %call = invoke noundef zeroext i1 @_ZNK5arrow19GenericBasicDecimalINS_15BasicDecimal256ELi256ELi4EE10IsNegativeEv(ptr noundef nonnull align 8 dereferenceable(32) %this1)
          to label %invoke.cont unwind label %lpad

invoke.cont:                                      ; preds = %entry
  br i1 %call, label %if.then, label %if.else

if.then:                                          ; preds = %invoke.cont
  invoke void @_ZNSt7__cxx1112basic_stringIcSt11char_traitsIcESaIcEE9push_backEc(ptr noundef nonnull align 8 dereferenceable(32) %agg.result, i8 noundef signext 45)
          to label %invoke.cont2 unwind label %lpad

invoke.cont2:                                     ; preds = %if.then
  call void @llvm.memcpy.p0.p0.i64(ptr align 8 %abs, ptr align 8 %this1, i64 32, i1 false)
  %call4 = invoke noundef nonnull align 8 dereferenceable(32) ptr @_ZN5arrow15BasicDecimal2566NegateEv(ptr noundef nonnull align 8 dereferenceable(32) %abs)
          to label %invoke.cont3 unwind label %lpad

invoke.cont3:                                     ; preds = %invoke.cont2
  %call6 = invoke noundef nonnull align 8 dereferenceable(32) ptr @_ZNK5arrow19GenericBasicDecimalINS_15BasicDecimal256ELi256ELi4EE19native_endian_arrayEv(ptr noundef nonnull align 8 dereferenceable(32) %abs)
          to label %invoke.cont5 unwind label %lpad

invoke.cont5:                                     ; preds = %invoke.cont3
  call void @llvm.memcpy.p0.p0.i64(ptr align 8 %agg.tmp, ptr align 8 %call6, i64 32, i1 false)
  invoke void @_ZN5arrow8bit_util13little_endianL10FromNativeImLm4EEESt5arrayIT_XT0_EES5_(ptr sret(%"struct.std::array.3") align 8 %ref.tmp, ptr noundef byval(%"struct.std::array.3") align 8 %agg.tmp)
          to label %invoke.cont7 unwind label %lpad

invoke.cont7:                                     ; preds = %invoke.cont5
  invoke void @_ZN5arrowL31AppendLittleEndianArrayToStringILm4EEEvRKSt5arrayImXT_EEPNSt7__cxx1112basic_stringIcSt11char_traitsIcESaIcEEE(ptr noundef nonnull align 8 dereferenceable(32) %ref.tmp, ptr noundef %agg.result)
          to label %invoke.cont8 unwind label %lpad

invoke.cont8:                                     ; preds = %invoke.cont7
  br label %if.end

lpad:                                             ; preds = %invoke.cont13, %invoke.cont11, %if.else, %invoke.cont7, %invoke.cont5, %invoke.cont3, %invoke.cont2, %if.then, %entry
  %0 = landingpad { ptr, i32 }
          cleanup
  %1 = extractvalue { ptr, i32 } %0, 0
  store ptr %1, ptr %exn.slot, align 8
  %2 = extractvalue { ptr, i32 } %0, 1
  store i32 %2, ptr %ehselector.slot, align 4
  call void @_ZNSt7__cxx1112basic_stringIcSt11char_traitsIcESaIcEED1Ev(ptr noundef nonnull align 8 dereferenceable(32) %agg.result) #12
  br label %eh.resume

if.else:                                          ; preds = %invoke.cont
  %call12 = invoke noundef nonnull align 8 dereferenceable(32) ptr @_ZNK5arrow19GenericBasicDecimalINS_15BasicDecimal256ELi256ELi4EE19native_endian_arrayEv(ptr noundef nonnull align 8 dereferenceable(32) %this1)
          to label %invoke.cont11 unwind label %lpad

invoke.cont11:                                    ; preds = %if.else
  call void @llvm.memcpy.p0.p0.i64(ptr align 8 %agg.tmp10, ptr align 8 %call12, i64 32, i1 false)
  invoke void @_ZN5arrow8bit_util13little_endianL10FromNativeImLm4EEESt5arrayIT_XT0_EES5_(ptr sret(%"struct.std::array.3") align 8 %ref.tmp9, ptr noundef byval(%"struct.std::array.3") align 8 %agg.tmp10)
          to label %invoke.cont13 unwind label %lpad

invoke.cont13:                                    ; preds = %invoke.cont11
  invoke void @_ZN5arrowL31AppendLittleEndianArrayToStringILm4EEEvRKSt5arrayImXT_EEPNSt7__cxx1112basic_stringIcSt11char_traitsIcESaIcEEE(ptr noundef nonnull align 8 dereferenceable(32) %ref.tmp9, ptr noundef %agg.result)
          to label %invoke.cont14 unwind label %lpad

invoke.cont14:                                    ; preds = %invoke.cont13
  br label %if.end

if.end:                                           ; preds = %invoke.cont14, %invoke.cont8
  store i1 true, ptr %nrvo, align 1
  %nrvo.val = load i1, ptr %nrvo, align 1
  br i1 %nrvo.val, label %nrvo.skipdtor, label %nrvo.unused

nrvo.unused:                                      ; preds = %if.end
  call void @_ZNSt7__cxx1112basic_stringIcSt11char_traitsIcESaIcEED1Ev(ptr noundef nonnull align 8 dereferenceable(32) %agg.result) #12
  br label %nrvo.skipdtor

nrvo.skipdtor:                                    ; preds = %nrvo.unused, %if.end
  ret void

eh.resume:                                        ; preds = %lpad
  %exn = load ptr, ptr %exn.slot, align 8
  %sel = load i32, ptr %ehselector.slot, align 4
  %lpad.val = insertvalue { ptr, i32 } poison, ptr %exn, 0
  %lpad.val15 = insertvalue { ptr, i32 } %lpad.val, i32 %sel, 1
  resume { ptr, i32 } %lpad.val15
}