; Function Attrs: mustprogress uwtable
define void @_ZNK5arrow10Decimal25615ToIntegerStringB5cxx11Ev(ptr noalias nonnull sret(%"class.std::__cxx11::basic_string") align 8 %agg.result, ptr nocapture noundef nonnull readonly align 8 dereferenceable(32) %this) local_unnamed_addr #0 align 2 personality ptr @__gxx_personality_v0 {
entry:
  %abs = alloca %"class.arrow::Decimal256", align 8
  %ref.tmp = alloca %"struct.std::array.3", align 8
  %ref.tmp9 = alloca %"struct.std::array.3", align 8
  tail call void @_ZNSt7__cxx1112basic_stringIcSt11char_traitsIcESaIcEEC1Ev(ptr noundef nonnull align 8 dereferenceable(32) %agg.result) #18
  %arrayidx.i.i.i = getelementptr inbounds i8, ptr %this, i64 24
  %0 = load i64, ptr %arrayidx.i.i.i, align 8
  %cmp.i = icmp slt i64 %0, 0
  br i1 %cmp.i, label %if.then, label %if.else

if.then:                                          ; preds = %entry
  invoke void @_ZNSt7__cxx1112basic_stringIcSt11char_traitsIcESaIcEE9push_backEc(ptr noundef nonnull align 8 dereferenceable(32) %agg.result, i8 noundef signext 45)
          to label %invoke.cont2 unwind label %lpad

invoke.cont2:                                     ; preds = %if.then
  call void @llvm.memcpy.p0.p0.i64(ptr noundef nonnull align 8 dereferenceable(32) %abs, ptr noundef nonnull align 8 dereferenceable(32) %this, i64 32, i1 false)
  %call4 = invoke noundef nonnull align 8 dereferenceable(32) ptr @_ZN5arrow15BasicDecimal2566NegateEv(ptr noundef nonnull align 8 dereferenceable(32) %abs)
          to label %invoke.cont3 unwind label %lpad

invoke.cont3:                                     ; preds = %invoke.cont2
  call void @llvm.memcpy.p0.p0.i64(ptr noundef nonnull align 8 dereferenceable(32) %ref.tmp, ptr noundef nonnull align 8 dereferenceable(32) %abs, i64 32, i1 false)
  br label %if.else.invoke

lpad:                                             ; preds = %if.else.invoke, %invoke.cont2, %if.then
  %1 = landingpad { ptr, i32 }
          cleanup
  call void @_ZNSt7__cxx1112basic_stringIcSt11char_traitsIcESaIcEED1Ev(ptr noundef nonnull align 8 dereferenceable(32) %agg.result) #18
  resume { ptr, i32 } %1

if.else:                                          ; preds = %entry
  call void @llvm.memcpy.p0.p0.i64(ptr noundef nonnull align 8 dereferenceable(32) %ref.tmp9, ptr noundef nonnull align 8 dereferenceable(32) %this, i64 32, i1 false)
  br label %if.else.invoke

if.else.invoke:                                   ; preds = %invoke.cont3, %if.else
  %2 = phi ptr [ %ref.tmp9, %if.else ], [ %ref.tmp, %invoke.cont3 ]
  invoke fastcc void @_ZN5arrowL31AppendLittleEndianArrayToStringILm4EEEvRKSt5arrayImXT_EEPNSt7__cxx1112basic_stringIcSt11char_traitsIcESaIcEEE(ptr noundef nonnull align 8 dereferenceable(32) %2, ptr noundef nonnull %agg.result)
          to label %nrvo.skipdtor unwind label %lpad

nrvo.skipdtor:                                    ; preds = %if.else.invoke
  ret void
}